target datalayout = "e-m:e-p270:32:32-p271:32:32-p272:64:64-i64:64-i128:128-f80:128-n8:16:32:64-S128"
target triple = "x86_64-pc-linux-gnu"

%struct._hashlibstate = type { ptr, ptr, ptr, ptr, ptr, ptr }

@EVPXOFtype_spec = internal global { ptr, i32, i32, i32, [4 x i8], ptr } { ptr @.str.128, i32 32, i32 0, i32 1408, [4 x i8] zeroinitializer, ptr @EVPXOFtype_slots }, align 8

; Function Attrs: inlinehint nounwind uwtable
define internal ptr @get_hashlib_state(ptr noundef %0) #4 {
  %2 = alloca ptr, align 8
  %3 = alloca ptr, align 8
  store ptr %0, ptr %2, align 8, !tbaa !14
  call void @llvm.lifetime.start.p0(i64 8, ptr %3) #9
  %4 = load ptr, ptr %2, align 8, !tbaa !14
  %5 = call ptr @PyModule_GetState(ptr noundef %4)
  store ptr %5, ptr %3, align 8, !tbaa !3
  %6 = load ptr, ptr %3, align 8, !tbaa !3
  call void @llvm.lifetime.end.p0(i64 8, ptr %3) #9
  ret ptr %6
}

; Function Attrs: nounwind uwtable
define internal i32 @hashlib_init_evpxoftype(ptr noundef %0) #0 {
  %2 = alloca i32, align 4
  %3 = alloca ptr, align 8
  %4 = alloca ptr, align 8
  %5 = alloca i32, align 4
  store ptr %0, ptr %3, align 8, !tbaa !14
  call void @llvm.lifetime.start.p0(i64 8, ptr %4) #9
  %6 = load ptr, ptr %3, align 8, !tbaa !14
  %7 = call ptr @get_hashlib_state(ptr noundef %6)
  store ptr %7, ptr %4, align 8, !tbaa !3
  %8 = load ptr, ptr %4, align 8, !tbaa !3
  %9 = getelementptr inbounds nuw %struct._hashlibstate, ptr %8, i32 0, i32 0
  %10 = load ptr, ptr %9, align 8, !tbaa !57
  %11 = icmp eq ptr %10, null
  br i1 %11, label %12, label %13

12:                                               ; preds = %1
  store i32 -1, ptr %2, align 4
  store i32 1, ptr %5, align 4
  br label %34

13:                                               ; preds = %1
  %14 = load ptr, ptr %4, align 8, !tbaa !3
  %15 = getelementptr inbounds nuw %struct._hashlibstate, ptr %14, i32 0, i32 0
  %16 = load ptr, ptr %15, align 8, !tbaa !57
  %17 = call ptr @PyType_FromSpecWithBases(ptr noundef @EVPXOFtype_spec, ptr noundef %16)
  %18 = load ptr, ptr %4, align 8, !tbaa !3
  %19 = getelementptr inbounds nuw %struct._hashlibstate, ptr %18, i32 0, i32 2
  store ptr %17, ptr %19, align 8, !tbaa !61
  %20 = load ptr, ptr %4, align 8, !tbaa !3
  %21 = getelementptr inbounds nuw %struct._hashlibstate, ptr %20, i32 0, i32 2
  %22 = load ptr, ptr %21, align 8, !tbaa !61
  %23 = icmp eq ptr %22, null
  br i1 %23, label %24, label %25

24:                                               ; preds = %13
  store i32 -1, ptr %2, align 4
  store i32 1, ptr %5, align 4
  br label %34

25:                                               ; preds = %13
  %26 = load ptr, ptr %3, align 8, !tbaa !14
  %27 = load ptr, ptr %4, align 8, !tbaa !3
  %28 = getelementptr inbounds nuw %struct._hashlibstate, ptr %27, i32 0, i32 2
  %29 = load ptr, ptr %28, align 8, !tbaa !61
  %30 = call i32 @PyModule_AddType(ptr noundef %26, ptr noundef %29)
  %31 = icmp slt i32 %30, 0
  br i1 %31, label %32, label %33

32:                                               ; preds = %25
  store i32 -1, ptr %2, align 4
  store i32 1, ptr %5, align 4
  br label %34

33:                                               ; preds = %25
  store i32 0, ptr %2, align 4
  store i32 1, ptr %5, align 4
  br label %34

34:                                               ; preds = %33, %32, %24, %12
  call void @llvm.lifetime.end.p0(i64 8, ptr %4) #9
  %35 = load i32, ptr %2, align 4
  ret i32 %35
}