; Function Attrs: nounwind uwtable
define internal range(i32 -1, 1) i32 @hashlib_init_evpxoftype(ptr noundef %0) #0 {
  %2 = tail call ptr @PyModule_GetState(ptr noundef %0) #9
  %3 = load ptr, ptr %2, align 8, !tbaa !42
  %4 = icmp eq ptr %3, null
  br i1 %4, label %11, label %5

5:                                                ; preds = %1
  %6 = tail call ptr @PyType_FromSpecWithBases(ptr noundef nonnull @EVPXOFtype_spec, ptr noundef nonnull %3) #9
  %7 = getelementptr inbounds nuw i8, ptr %2, i64 16
  store ptr %6, ptr %7, align 8, !tbaa !46
  %8 = icmp eq ptr %6, null
  br i1 %8, label %11, label %9

9:                                                ; preds = %5
  %10 = tail call i32 @PyModule_AddType(ptr noundef %0, ptr noundef nonnull %6) #9
  %.lobit = ashr i32 %10, 31
  br label %11

11:                                               ; preds = %9, %5, %1
  %.0 = phi i32 [ -1, %1 ], [ -1, %5 ], [ %.lobit, %9 ]
  ret i32 %.0
}